target datalayout = "e-m:e-p270:32:32-p271:32:32-p272:64:64-i64:64-i128:128-f80:128-n8:16:32:64-S128"
target triple = "x86_64-pc-linux-gnu"

%struct.ll_merge_options = type { i8, i32, i32, i64 }
%struct.s_mmfile = type { ptr, i64 }
%struct.s_mmbuffer = type { ptr, i64 }
%struct.s_xmparam = type { %struct.s_xpparam, i32, i32, i32, i32, ptr, ptr, ptr }
%struct.s_xpparam = type { i64, ptr, i64, ptr, i64 }

@git_xmerge_style = external global i32, align 4

; Function Attrs: nounwind uwtable
define internal i32 @ll_binary_merge(ptr noundef %0, ptr noundef %1, ptr noundef %2, ptr noundef %3, ptr noundef %4, ptr noundef %5, ptr noundef %6, ptr noundef %7, ptr noundef %8, ptr noundef %9, i32 noundef %10) #0 {
  %12 = alloca ptr, align 8
  %13 = alloca ptr, align 8
  %14 = alloca ptr, align 8
  %15 = alloca ptr, align 8
  %16 = alloca ptr, align 8
  %17 = alloca ptr, align 8
  %18 = alloca ptr, align 8
  %19 = alloca ptr, align 8
  %20 = alloca ptr, align 8
  %21 = alloca ptr, align 8
  %22 = alloca i32, align 4
  %23 = alloca i32, align 4
  %24 = alloca ptr, align 8
  store ptr %0, ptr %12, align 8, !tbaa !29
  store ptr %1, ptr %13, align 8, !tbaa !9
  store ptr %2, ptr %14, align 8, !tbaa !11
  store ptr %3, ptr %15, align 8, !tbaa !13
  store ptr %4, ptr %16, align 8, !tbaa !11
  store ptr %5, ptr %17, align 8, !tbaa !13
  store ptr %6, ptr %18, align 8, !tbaa !11
  store ptr %7, ptr %19, align 8, !tbaa !13
  store ptr %8, ptr %20, align 8, !tbaa !11
  store ptr %9, ptr %21, align 8, !tbaa !17
  store i32 %10, ptr %22, align 4, !tbaa !19
  call void @llvm.lifetime.start.p0(i64 4, ptr %23) #10
  call void @llvm.lifetime.start.p0(i64 8, ptr %24) #10
  %25 = load ptr, ptr %21, align 8, !tbaa !17
  %26 = load i8, ptr %25, align 8
  %27 = and i8 %26, 1
  %28 = zext i8 %27 to i32
  %29 = icmp ne i32 %28, 0
  br i1 %29, label %30, label %32

30:                                               ; preds = %11
  %31 = load ptr, ptr %15, align 8, !tbaa !13
  store ptr %31, ptr %24, align 8, !tbaa !13
  store i32 0, ptr %23, align 4, !tbaa !19
  br label %45

32:                                               ; preds = %11
  %33 = load ptr, ptr %21, align 8, !tbaa !17
  %34 = load i8, ptr %33, align 8
  %35 = lshr i8 %34, 1
  %36 = and i8 %35, 3
  %37 = zext i8 %36 to i32
  switch i32 %37, label %38 [
    i32 1, label %40
    i32 2, label %42
  ]

38:                                               ; preds = %32
  store i32 2, ptr %23, align 4, !tbaa !19
  %39 = load ptr, ptr %17, align 8, !tbaa !13
  store ptr %39, ptr %24, align 8, !tbaa !13
  br label %44

40:                                               ; preds = %32
  store i32 0, ptr %23, align 4, !tbaa !19
  %41 = load ptr, ptr %17, align 8, !tbaa !13
  store ptr %41, ptr %24, align 8, !tbaa !13
  br label %44

42:                                               ; preds = %32
  store i32 0, ptr %23, align 4, !tbaa !19
  %43 = load ptr, ptr %19, align 8, !tbaa !13
  store ptr %43, ptr %24, align 8, !tbaa !13
  br label %44

44:                                               ; preds = %42, %40, %38
  br label %45

45:                                               ; preds = %44, %30
  %46 = load ptr, ptr %24, align 8, !tbaa !13
  %47 = getelementptr inbounds nuw %struct.s_mmfile, ptr %46, i32 0, i32 0
  %48 = load ptr, ptr %47, align 8, !tbaa !37
  %49 = load ptr, ptr %13, align 8, !tbaa !9
  %50 = getelementptr inbounds nuw %struct.s_mmbuffer, ptr %49, i32 0, i32 0
  store ptr %48, ptr %50, align 8, !tbaa !60
  %51 = load ptr, ptr %24, align 8, !tbaa !13
  %52 = getelementptr inbounds nuw %struct.s_mmfile, ptr %51, i32 0, i32 1
  %53 = load i64, ptr %52, align 8, !tbaa !39
  %54 = load ptr, ptr %13, align 8, !tbaa !9
  %55 = getelementptr inbounds nuw %struct.s_mmbuffer, ptr %54, i32 0, i32 1
  store i64 %53, ptr %55, align 8, !tbaa !62
  %56 = load ptr, ptr %24, align 8, !tbaa !13
  %57 = getelementptr inbounds nuw %struct.s_mmfile, ptr %56, i32 0, i32 0
  store ptr null, ptr %57, align 8, !tbaa !37
  %58 = load i32, ptr %23, align 4, !tbaa !19
  call void @llvm.lifetime.end.p0(i64 8, ptr %24) #10
  call void @llvm.lifetime.end.p0(i64 4, ptr %23) #10
  ret i32 %58
}

; Function Attrs: nounwind uwtable
define internal i32 @ll_xdl_merge(ptr noundef %0, ptr noundef %1, ptr noundef %2, ptr noundef %3, ptr noundef %4, ptr noundef %5, ptr noundef %6, ptr noundef %7, ptr noundef %8, ptr noundef %9, i32 noundef %10) #0 {
  %12 = alloca i32, align 4
  %13 = alloca ptr, align 8
  %14 = alloca ptr, align 8
  %15 = alloca ptr, align 8
  %16 = alloca ptr, align 8
  %17 = alloca ptr, align 8
  %18 = alloca ptr, align 8
  %19 = alloca ptr, align 8
  %20 = alloca ptr, align 8
  %21 = alloca ptr, align 8
  %22 = alloca ptr, align 8
  %23 = alloca i32, align 4
  %24 = alloca i32, align 4
  %25 = alloca %struct.s_xmparam, align 8
  %26 = alloca i32, align 4
  %27 = alloca i32, align 4
  store ptr %0, ptr %13, align 8, !tbaa !29
  store ptr %1, ptr %14, align 8, !tbaa !9
  store ptr %2, ptr %15, align 8, !tbaa !11
  store ptr %3, ptr %16, align 8, !tbaa !13
  store ptr %4, ptr %17, align 8, !tbaa !11
  store ptr %5, ptr %18, align 8, !tbaa !13
  store ptr %6, ptr %19, align 8, !tbaa !11
  store ptr %7, ptr %20, align 8, !tbaa !13
  store ptr %8, ptr %21, align 8, !tbaa !11
  store ptr %9, ptr %22, align 8, !tbaa !17
  store i32 %10, ptr %23, align 4, !tbaa !19
  call void @llvm.lifetime.start.p0(i64 4, ptr %24) #10
  call void @llvm.lifetime.start.p0(i64 80, ptr %25) #10
  call void @llvm.lifetime.start.p0(i64 4, ptr %26) #10
  %28 = load ptr, ptr %16, align 8, !tbaa !13
  %29 = getelementptr inbounds nuw %struct.s_mmfile, ptr %28, i32 0, i32 1
  %30 = load i64, ptr %29, align 8, !tbaa !39
  %31 = icmp ugt i64 %30, 1072693248
  br i1 %31, label %69, label %32

32:                                               ; preds = %11
  %33 = load ptr, ptr %18, align 8, !tbaa !13
  %34 = getelementptr inbounds nuw %struct.s_mmfile, ptr %33, i32 0, i32 1
  %35 = load i64, ptr %34, align 8, !tbaa !39
  %36 = icmp ugt i64 %35, 1072693248
  br i1 %36, label %69, label %37

37:                                               ; preds = %32
  %38 = load ptr, ptr %20, align 8, !tbaa !13
  %39 = getelementptr inbounds nuw %struct.s_mmfile, ptr %38, i32 0, i32 1
  %40 = load i64, ptr %39, align 8, !tbaa !39
  %41 = icmp ugt i64 %40, 1072693248
  br i1 %41, label %69, label %42

42:                                               ; preds = %37
  %43 = load ptr, ptr %16, align 8, !tbaa !13
  %44 = getelementptr inbounds nuw %struct.s_mmfile, ptr %43, i32 0, i32 0
  %45 = load ptr, ptr %44, align 8, !tbaa !37
  %46 = load ptr, ptr %16, align 8, !tbaa !13
  %47 = getelementptr inbounds nuw %struct.s_mmfile, ptr %46, i32 0, i32 1
  %48 = load i64, ptr %47, align 8, !tbaa !39
  %49 = call i32 @buffer_is_binary(ptr noundef %45, i64 noundef %48)
  %50 = icmp ne i32 %49, 0
  br i1 %50, label %69, label %51

51:                                               ; preds = %42
  %52 = load ptr, ptr %18, align 8, !tbaa !13
  %53 = getelementptr inbounds nuw %struct.s_mmfile, ptr %52, i32 0, i32 0
  %54 = load ptr, ptr %53, align 8, !tbaa !37
  %55 = load ptr, ptr %18, align 8, !tbaa !13
  %56 = getelementptr inbounds nuw %struct.s_mmfile, ptr %55, i32 0, i32 1
  %57 = load i64, ptr %56, align 8, !tbaa !39
  %58 = call i32 @buffer_is_binary(ptr noundef %54, i64 noundef %57)
  %59 = icmp ne i32 %58, 0
  br i1 %59, label %69, label %60

60:                                               ; preds = %51
  %61 = load ptr, ptr %20, align 8, !tbaa !13
  %62 = getelementptr inbounds nuw %struct.s_mmfile, ptr %61, i32 0, i32 0
  %63 = load ptr, ptr %62, align 8, !tbaa !37
  %64 = load ptr, ptr %20, align 8, !tbaa !13
  %65 = getelementptr inbounds nuw %struct.s_mmfile, ptr %64, i32 0, i32 1
  %66 = load i64, ptr %65, align 8, !tbaa !39
  %67 = call i32 @buffer_is_binary(ptr noundef %63, i64 noundef %66)
  %68 = icmp ne i32 %67, 0
  br i1 %68, label %69, label %82

69:                                               ; preds = %60, %51, %42, %37, %32, %11
  %70 = load ptr, ptr %13, align 8, !tbaa !29
  %71 = load ptr, ptr %14, align 8, !tbaa !9
  %72 = load ptr, ptr %15, align 8, !tbaa !11
  %73 = load ptr, ptr %16, align 8, !tbaa !13
  %74 = load ptr, ptr %17, align 8, !tbaa !11
  %75 = load ptr, ptr %18, align 8, !tbaa !13
  %76 = load ptr, ptr %19, align 8, !tbaa !11
  %77 = load ptr, ptr %20, align 8, !tbaa !13
  %78 = load ptr, ptr %21, align 8, !tbaa !11
  %79 = load ptr, ptr %22, align 8, !tbaa !17
  %80 = load i32, ptr %23, align 4, !tbaa !19
  %81 = call i32 @ll_binary_merge(ptr noundef %70, ptr noundef %71, ptr noundef %72, ptr noundef %73, ptr noundef %74, ptr noundef %75, ptr noundef %76, ptr noundef %77, ptr noundef %78, ptr noundef %79, i32 noundef %80)
  store i32 %81, ptr %12, align 4
  store i32 1, ptr %27, align 4
  br label %137

82:                                               ; preds = %60
  call void @llvm.memset.p0.i64(ptr align 8 %25, i8 0, i64 80, i1 false)
  %83 = getelementptr inbounds nuw %struct.s_xmparam, ptr %25, i32 0, i32 2
  store i32 2, ptr %83, align 4, !tbaa !75
  %84 = load ptr, ptr %22, align 8, !tbaa !17
  %85 = load i8, ptr %84, align 8
  %86 = lshr i8 %85, 1
  %87 = and i8 %86, 3
  %88 = zext i8 %87 to i32
  %89 = getelementptr inbounds nuw %struct.s_xmparam, ptr %25, i32 0, i32 3
  store i32 %88, ptr %89, align 8, !tbaa !79
  %90 = load ptr, ptr %22, align 8, !tbaa !17
  %91 = getelementptr inbounds nuw %struct.ll_merge_options, ptr %90, i32 0, i32 3
  %92 = load i64, ptr %91, align 8, !tbaa !80
  %93 = getelementptr inbounds nuw %struct.s_xmparam, ptr %25, i32 0, i32 0
  %94 = getelementptr inbounds nuw %struct.s_xpparam, ptr %93, i32 0, i32 0
  store i64 %92, ptr %94, align 8, !tbaa !81
  %95 = load ptr, ptr %22, align 8, !tbaa !17
  %96 = getelementptr inbounds nuw %struct.ll_merge_options, ptr %95, i32 0, i32 2
  %97 = load i32, ptr %96, align 8, !tbaa !82
  %98 = icmp sge i32 %97, 0
  br i1 %98, label %99, label %104

99:                                               ; preds = %82
  %100 = load ptr, ptr %22, align 8, !tbaa !17
  %101 = getelementptr inbounds nuw %struct.ll_merge_options, ptr %100, i32 0, i32 2
  %102 = load i32, ptr %101, align 8, !tbaa !82
  %103 = getelementptr inbounds nuw %struct.s_xmparam, ptr %25, i32 0, i32 4
  store i32 %102, ptr %103, align 4, !tbaa !83
  br label %111

104:                                              ; preds = %82
  %105 = load i32, ptr @git_xmerge_style, align 4, !tbaa !19
  %106 = icmp sge i32 %105, 0
  br i1 %106, label %107, label %110

107:                                              ; preds = %104
  %108 = load i32, ptr @git_xmerge_style, align 4, !tbaa !19
  %109 = getelementptr inbounds nuw %struct.s_xmparam, ptr %25, i32 0, i32 4
  store i32 %108, ptr %109, align 4, !tbaa !83
  br label %110

110:                                              ; preds = %107, %104
  br label %111

111:                                              ; preds = %110, %99
  %112 = load i32, ptr %23, align 4, !tbaa !19
  %113 = icmp sgt i32 %112, 0
  br i1 %113, label %114, label %117

114:                                              ; preds = %111
  %115 = load i32, ptr %23, align 4, !tbaa !19
  %116 = getelementptr inbounds nuw %struct.s_xmparam, ptr %25, i32 0, i32 1
  store i32 %115, ptr %116, align 8, !tbaa !84
  br label %117

117:                                              ; preds = %114, %111
  %118 = load ptr, ptr %17, align 8, !tbaa !11
  %119 = getelementptr inbounds nuw %struct.s_xmparam, ptr %25, i32 0, i32 5
  store ptr %118, ptr %119, align 8, !tbaa !85
  %120 = load ptr, ptr %19, align 8, !tbaa !11
  %121 = getelementptr inbounds nuw %struct.s_xmparam, ptr %25, i32 0, i32 6
  store ptr %120, ptr %121, align 8, !tbaa !86
  %122 = load ptr, ptr %21, align 8, !tbaa !11
  %123 = getelementptr inbounds nuw %struct.s_xmparam, ptr %25, i32 0, i32 7
  store ptr %122, ptr %123, align 8, !tbaa !87
  %124 = load ptr, ptr %16, align 8, !tbaa !13
  %125 = load ptr, ptr %18, align 8, !tbaa !13
  %126 = load ptr, ptr %20, align 8, !tbaa !13
  %127 = load ptr, ptr %14, align 8, !tbaa !9
  %128 = call i32 @xdl_merge(ptr noundef %124, ptr noundef %125, ptr noundef %126, ptr noundef %25, ptr noundef %127)
  store i32 %128, ptr %26, align 4, !tbaa !19
  %129 = load i32, ptr %26, align 4, !tbaa !19
  %130 = icmp sgt i32 %129, 0
  br i1 %130, label %131, label %132

131:                                              ; preds = %117
  br label %134

132:                                              ; preds = %117
  %133 = load i32, ptr %26, align 4, !tbaa !19
  br label %134

134:                                              ; preds = %132, %131
  %135 = phi i32 [ 1, %131 ], [ %133, %132 ]
  store i32 %135, ptr %24, align 4, !tbaa !19
  %136 = load i32, ptr %24, align 4, !tbaa !19
  store i32 %136, ptr %12, align 4
  store i32 1, ptr %27, align 4
  br label %137

137:                                              ; preds = %134, %69
  call void @llvm.lifetime.end.p0(i64 4, ptr %26) #10
  call void @llvm.lifetime.end.p0(i64 80, ptr %25) #10
  call void @llvm.lifetime.end.p0(i64 4, ptr %24) #10
  %138 = load i32, ptr %12, align 4
  ret i32 %138
}