; Function Attrs: nounwind uwtable
define internal range(i32 -2147483648, 3) i32 @ll_xdl_merge(ptr readnone captures(none) %0, ptr noundef %1, ptr readnone captures(none) %2, ptr noundef %3, ptr noundef %4, ptr noundef %5, ptr noundef %6, ptr noundef %7, ptr noundef %8, ptr noundef readonly captures(none) %9, i32 noundef %10) #0 {
  %12 = alloca %struct.s_xmparam, align 8
  call void @llvm.lifetime.start.p0(i64 80, ptr nonnull %12) #15
  %13 = getelementptr inbounds nuw i8, ptr %3, i64 8
  %14 = load i64, ptr %13, align 8, !tbaa !13
  %15 = icmp ugt i64 %14, 1072693248
  br i1 %15, label %35, label %16

16:                                               ; preds = %11
  %17 = getelementptr inbounds nuw i8, ptr %5, i64 8
  %18 = load i64, ptr %17, align 8, !tbaa !13
  %19 = icmp ugt i64 %18, 1072693248
  br i1 %19, label %35, label %20

20:                                               ; preds = %16
  %21 = getelementptr inbounds nuw i8, ptr %7, i64 8
  %22 = load i64, ptr %21, align 8, !tbaa !13
  %23 = icmp ugt i64 %22, 1072693248
  br i1 %23, label %35, label %24

24:                                               ; preds = %20
  %25 = load ptr, ptr %3, align 8, !tbaa !9
  %26 = tail call i32 @buffer_is_binary(ptr noundef %25, i64 noundef %14) #15
  %.not = icmp eq i32 %26, 0
  br i1 %.not, label %27, label %35

27:                                               ; preds = %24
  %28 = load ptr, ptr %5, align 8, !tbaa !9
  %29 = load i64, ptr %17, align 8, !tbaa !13
  %30 = tail call i32 @buffer_is_binary(ptr noundef %28, i64 noundef %29) #15
  %.not40 = icmp eq i32 %30, 0
  br i1 %.not40, label %31, label %35

31:                                               ; preds = %27
  %32 = load ptr, ptr %7, align 8, !tbaa !9
  %33 = load i64, ptr %21, align 8, !tbaa !13
  %34 = tail call i32 @buffer_is_binary(ptr noundef %32, i64 noundef %33) #15
  %.not41 = icmp eq i32 %34, 0
  br i1 %.not41, label %47, label %35

35:                                               ; preds = %31, %27, %24, %20, %16, %11
  %36 = load i8, ptr %9, align 8
  %37 = and i8 %36, 1
  %.not.i = icmp eq i8 %37, 0
  br i1 %.not.i, label %38, label %ll_binary_merge.exit

38:                                               ; preds = %35
  %39 = lshr exact i8 %36, 1
  %40 = and i8 %39, 3
  switch i8 %40, label %ll_binary_merge.exit [
    i8 1, label %41
    i8 2, label %42
  ]

41:                                               ; preds = %38
  br label %ll_binary_merge.exit

42:                                               ; preds = %38
  br label %ll_binary_merge.exit

ll_binary_merge.exit:                             ; preds = %35, %38, %41, %42
  %.011.i = phi i32 [ 0, %42 ], [ 0, %41 ], [ 0, %35 ], [ 2, %38 ]
  %.0.i = phi ptr [ %7, %42 ], [ %5, %41 ], [ %3, %35 ], [ %5, %38 ]
  %43 = load ptr, ptr %.0.i, align 8, !tbaa !9
  store ptr %43, ptr %1, align 8, !tbaa !55
  %44 = getelementptr inbounds nuw i8, ptr %.0.i, i64 8
  %45 = load i64, ptr %44, align 8, !tbaa !13
  %46 = getelementptr inbounds nuw i8, ptr %1, i64 8
  store i64 %45, ptr %46, align 8, !tbaa !53
  store ptr null, ptr %.0.i, align 8, !tbaa !9
  br label %74

47:                                               ; preds = %31
  %48 = getelementptr inbounds nuw i8, ptr %12, i64 8
  call void @llvm.memset.p0.i64(ptr noundef nonnull align 8 dereferenceable(80) %48, i8 0, i64 48, i1 false)
  %49 = getelementptr inbounds nuw i8, ptr %12, i64 44
  store i32 2, ptr %49, align 4, !tbaa !57
  %50 = load i8, ptr %9, align 8
  %51 = lshr i8 %50, 1
  %52 = and i8 %51, 3
  %53 = zext nneg i8 %52 to i32
  %54 = getelementptr inbounds nuw i8, ptr %12, i64 48
  store i32 %53, ptr %54, align 8, !tbaa !62
  %55 = getelementptr inbounds nuw i8, ptr %9, i64 16
  %56 = load i64, ptr %55, align 8, !tbaa !63
  store i64 %56, ptr %12, align 8, !tbaa !64
  %57 = getelementptr inbounds nuw i8, ptr %9, i64 8
  %58 = load i32, ptr %57, align 8, !tbaa !65
  %59 = icmp sgt i32 %58, -1
  br i1 %59, label %.sink.split, label %60

60:                                               ; preds = %47
  %61 = load i32, ptr @git_xmerge_style, align 4, !tbaa !25
  %62 = icmp sgt i32 %61, -1
  br i1 %62, label %.sink.split, label %64

.sink.split:                                      ; preds = %60, %47
  %.sink = phi i32 [ %58, %47 ], [ %61, %60 ]
  %63 = getelementptr inbounds nuw i8, ptr %12, i64 52
  store i32 %.sink, ptr %63, align 4, !tbaa !66
  br label %64

64:                                               ; preds = %.sink.split, %60
  %65 = icmp sgt i32 %10, 0
  br i1 %65, label %66, label %68

66:                                               ; preds = %64
  %67 = getelementptr inbounds nuw i8, ptr %12, i64 40
  store i32 %10, ptr %67, align 8, !tbaa !67
  br label %68

68:                                               ; preds = %66, %64
  %69 = getelementptr inbounds nuw i8, ptr %12, i64 56
  store ptr %4, ptr %69, align 8, !tbaa !68
  %70 = getelementptr inbounds nuw i8, ptr %12, i64 64
  store ptr %6, ptr %70, align 8, !tbaa !69
  %71 = getelementptr inbounds nuw i8, ptr %12, i64 72
  store ptr %8, ptr %71, align 8, !tbaa !70
  %72 = call i32 @xdl_merge(ptr noundef nonnull %3, ptr noundef nonnull %5, ptr noundef nonnull %7, ptr noundef nonnull %12, ptr noundef %1) #15
  %73 = call i32 @llvm.smin.i32(i32 %72, i32 1)
  br label %74

74:                                               ; preds = %68, %ll_binary_merge.exit
  %.0 = phi i32 [ %.011.i, %ll_binary_merge.exit ], [ %73, %68 ]
  call void @llvm.lifetime.end.p0(i64 80, ptr nonnull %12) #15
  ret i32 %.0
}